target datalayout = "e-m:e-p270:32:32-p271:32:32-p272:64:64-i64:64-i128:128-f80:128-n8:16:32:64-S128"
target triple = "x86_64-unknown-linux-gnu"

%"class.icu_75::UObject" = type { ptr }
%"class.icu_75::KeywordEnumeration" = type { %"class.icu_75::StringEnumeration.base", ptr, ptr, i32, %"class.icu_75::UnicodeString" }
%"class.icu_75::StringEnumeration.base" = type <{ %"class.icu_75::UObject", %"class.icu_75::UnicodeString", [32 x i8], ptr, i32 }>
%"class.icu_75::UnicodeString" = type { %"class.icu_75::Replaceable", %"union.icu_75::UnicodeString::StackBufferOrFields" }
%"class.icu_75::Replaceable" = type { %"class.icu_75::UObject" }
%"union.icu_75::UnicodeString::StackBufferOrFields" = type { %struct.anon.2, [32 x i8] }
%struct.anon.2 = type { i16, i32, i32, ptr }

; Function Attrs: mustprogress nounwind uwtable
define void @_ZN6icu_7518KeywordEnumerationD2Ev(ptr noundef nonnull align 8 dereferenceable(208) %this) unnamed_addr #0 align 2 personality ptr @__gxx_personality_v0 {
entry:
  %this.addr = alloca ptr, align 8
  store ptr %this, ptr %this.addr, align 8
  %this1 = load ptr, ptr %this.addr, align 8
  store ptr getelementptr inbounds ({ [13 x ptr] }, ptr @_ZTVN6icu_7518KeywordEnumerationE, i32 0, i32 0, i32 2), ptr %this1, align 8
  %keywords = getelementptr inbounds %"class.icu_75::KeywordEnumeration", ptr %this1, i32 0, i32 1
  %0 = load ptr, ptr %keywords, align 8
  invoke void @uprv_free_75(ptr noundef %0)
          to label %invoke.cont unwind label %terminate.lpad

invoke.cont:                                      ; preds = %entry
  %currUSKey = getelementptr inbounds %"class.icu_75::KeywordEnumeration", ptr %this1, i32 0, i32 4
  call void @_ZN6icu_7513UnicodeStringD1Ev(ptr noundef nonnull align 8 dereferenceable(64) %currUSKey) #10
  call void @_ZN6icu_7517StringEnumerationD2Ev(ptr noundef nonnull align 8 dereferenceable(116) %this1) #10
  ret void

terminate.lpad:                                   ; preds = %entry
  %1 = landingpad { ptr, i32 }
          catch ptr null
  %2 = extractvalue { ptr, i32 } %1, 0
  call void @__clang_call_terminate(ptr %2) #12
  unreachable
}

; Function Attrs: mustprogress nounwind uwtable
define void @_ZN6icu_7525UnicodeKeywordEnumerationD2Ev(ptr noundef nonnull align 8 dereferenceable(208) %this) unnamed_addr #0 align 2 {
entry:
  %this.addr = alloca ptr, align 8
  store ptr %this, ptr %this.addr, align 8
  %this1 = load ptr, ptr %this.addr, align 8
  call void @_ZN6icu_7518KeywordEnumerationD2Ev(ptr noundef nonnull align 8 dereferenceable(208) %this1) #10
  ret void
}